(dp0
(I8
I1
I7
tp1
(lp2
I10
as(I3
I1
I10
tp3
(lp4
I6
aI7
as(I9
I5
I8
tp5
(lp6
I2
aI4
as(I4
I7
I6
tp7
(lp8
I10
as(I8
I1
I9
tp9
(lp10
I1
aI6
as(I3
I1
I8
tp11
(lp12
I1
as(I7
I10
I8
tp13
(lp14
I1
aI2
as(I9
I6
I5
tp15
(lp16
I4
aI7
as(I9
I5
I10
tp17
(lp18
I3
aI7
as(I4
I7
I4
tp19
(lp20
I2
aI5
aI8
as(I3
I1
I6
tp21
(lp22
I1
aI9
as(I6
I5
I1
tp23
(lp24
I8
aI9
as(I5
I6
I9
tp25
(lp26
I1
aI6
as(I4
I7
I10
tp27
(lp28
I7
as(I3
I1
I4
tp29
(lp30
I5
aI8
as(I7
I4
I1
tp31
(lp32
I8
as(I9
I6
I1
tp33
(lp34
I6
aI8
as(I4
I7
I8
tp35
(lp36
I1
aI2
as(I3
I1
I2
tp37
(lp38
I4
aI8
as(I7
I4
I3
tp39
(lp40
I2
as(I1
I8
I2
tp41
(lp42
I8
as(I9
I6
I3
tp43
(lp44
I10
as(I2
I8
I3
tp45
(lp46
I7
aI10
as(I2
I8
I10
tp47
(lp48
I6
as(I6
I9
I1
tp49
(lp50
I8
aI9
as(I7
I4
I5
tp51
(lp52
I4
aI9
as(I10
I2
I6
tp53
(lp54
I1
aI9
as(I7
I4
I7
tp55
(lp56
I3
aI5
aI10
as(I1
I8
I6
tp57
(lp58
I9
aI10
as(I10
I7
I2
tp59
(lp60
I3
aI4
aI8
as(I1
I3
I7
tp61
(lp62
I3
as(I10
I2
I4
tp63
(lp64
I2
aI8
as(I1
I8
I4
tp65
(lp66
I2
aI8
as(I9
I6
I9
tp67
(lp68
I1
aI5
aI6
as(I10
I7
I4
tp69
(lp70
I5
as(I1
I3
I5
tp71
(lp72
I4
aI7
as(I10
I2
I10
tp73
(lp74
I3
aI6
aI7
as(I4
I3
I6
tp75
(lp76
I10
as(I2
I8
I2
tp77
(lp78
I3
aI4
aI8
as(I3
I4
I5
tp79
(lp80
I4
aI9
as(I1
I8
I10
tp81
(lp82
I3
aI7
as(I10
I7
I6
tp83
(lp84
I1
aI9
as(I10
I2
I8
tp85
(lp86
I2
aI4
as(I8
I2
I3
tp87
(lp88
I2
as(I3
I4
I7
tp89
(lp90
I5
aI10
as(I10
I7
I8
tp91
(lp92
I2
aI4
as(I1
I3
I1
tp93
(lp94
I6
aI8
aI9
as(I8
I2
I5
tp95
(lp96
I4
aI7
as(I3
I4
I1
tp97
(lp98
I8
as(I10
I7
I10
tp99
(lp100
I3
aI6
aI7
as(I8
I2
I7
tp101
(lp102
I3
aI10
as(I3
I4
I3
tp103
(lp104
I2
aI7
aI10
as(I2
I10
I2
tp105
(lp106
I3
aI4
aI8
as(I8
I2
I9
tp107
(lp108
I5
aI6
as(I8
I2
I1
tp109
(lp110
I6
aI9
as(I5
I9
I8
tp111
(lp112
I1
as(I5
I6
I10
tp113
(lp114
I6
as(I7
I10
I7
tp115
(lp116
I3
aI5
aI10
as(I9
I5
I7
tp117
(lp118
I5
as(I5
I9
I10
tp119
(lp120
I6
as(I1
I3
I9
tp121
(lp122
I5
aI6
as(I2
I10
I6
tp123
(lp124
I10
as(I4
I3
I10
tp125
(lp126
I3
as(I7
I10
I5
tp127
(lp128
I4
aI9
as(I3
I4
I9
tp129
(lp130
I1
aI5
as(I9
I5
I1
tp131
(lp132
I6
aI8
as(I5
I9
I4
tp133
(lp134
I2
aI8
as(I6
I5
I9
tp135
(lp136
I1
aI5
as(I4
I3
I8
tp137
(lp138
I1
aI2
as(I7
I10
I3
tp139
(lp140
I2
aI10
as(I6
I9
I5
tp141
(lp142
I9
as(I5
I6
I1
tp143
(lp144
I6
aI9
as(I9
I5
I3
tp145
(lp146
I7
as(I5
I9
I6
tp147
(lp148
I1
aI9
as(I8
I1
I2
tp149
(lp150
I3
aI4
as(I2
I8
I5
tp151
(lp152
I4
aI9
as(I7
I10
I1
tp153
(lp154
I6
as(I9
I6
I7
tp155
(lp156
I3
aI10
as(I8
I1
I4
tp157
(lp158
I2
aI5
as(I2
I10
I8
tp159
(lp160
I1
aI4
as(I2
I8
I7
tp161
(lp162
I5
aI10
as(I7
I4
I8
tp163
(lp164
I4
as(I2
I10
I4
tp165
(lp166
I5
aI8
as(I4
I7
I3
tp167
(lp168
I7
aI10
as(I5
I9
I2
tp169
(lp170
I3
aI8
as(I8
I1
I6
tp171
(lp172
I1
as(I5
I6
I7
tp173
(lp174
I3
aI10
as(I2
I8
I1
tp175
(lp176
I8
as(I7
I4
I10
tp177
(lp178
I3
aI6
as(I4
I3
I4
tp179
(lp180
I2
aI5
aI8
as(I9
I5
I9
tp181
(lp182
I1
aI5
aI6
as(I4
I7
I1
tp183
(lp184
I6
aI9
as(I8
I1
I8
tp185
(lp186
I1
aI2
aI4
as(I3
I1
I9
tp187
(lp188
I1
as(I6
I5
I10
tp189
(lp190
I3
aI7
as(I9
I6
I4
tp191
(lp192
I2
aI8
as(I6
I9
I3
tp193
(lp194
I2
aI7
as(I8
I1
I10
tp195
(lp196
I6
as(I3
I1
I7
tp197
(lp198
I5
aI10
as(I7
I10
I9
tp199
(lp200
I1
aI6
as(I6
I5
I8
tp201
(lp202
I2
aI4
as(I4
I7
I5
tp203
(lp204
I7
aI9
as(I6
I5
I7
tp205
(lp206
I5
as(I3
I1
I5
tp207
(lp208
I9
as(I6
I5
I6
tp209
(lp210
I1
aI9
aI10
as(I5
I6
I3
tp211
(lp212
I10
as(I5
I6
I4
tp213
(lp214
I2
aI8
as(I10
I2
I3
tp215
(lp216
I2
aI7
as(I3
I1
I3
tp217
(lp218
I2
aI7
aI10
as(I7
I4
I2
tp219
(lp220
I4
aI8
as(I9
I6
I2
tp221
(lp222
I3
aI8
as(I4
I7
I9
tp223
(lp224
I5
aI6
as(I10
I2
I1
tp225
(lp226
I8
as(I2
I8
I9
tp227
(lp228
I1
aI6
as(I6
I5
I2
tp229
(lp230
I4
as(I1
I8
I3
tp231
(lp232
I2
as(I10
I2
I7
tp233
(lp234
I3
aI5
as(I6
I5
I4
tp235
(lp236
I5
as(I7
I4
I6
tp237
(lp238
I1
aI9
as(I4
I3
I2
tp239
(lp240
I3
aI8
as(I1
I8
I1
tp241
(lp242
I6
aI8
aI9
as(I10
I7
I1
tp243
(lp244
I8
aI9
as(I10
I2
I5
tp245
(lp246
I4
as(I1
I8
I7
tp247
(lp248
I3
as(I9
I6
I8
tp249
(lp250
I1
aI2
as(I10
I7
I3
tp251
(lp252
I2
aI7
as(I1
I3
I6
tp253
(lp254
I9
aI10
as(I6
I9
I2
tp255
(lp256
I4
aI8
as(I1
I8
I5
tp257
(lp258
I4
aI7
as(I9
I6
I10
tp259
(lp260
I6
as(I10
I7
I5
tp261
(lp262
I7
as(I1
I3
I4
tp263
(lp264
I2
as(I10
I2
I9
tp265
(lp266
I1
as(I4
I3
I7
tp267
(lp268
I3
aI10
as(I5
I6
I5
tp269
(lp270
I4
aI7
aI9
as(I3
I4
I6
tp271
(lp272
I1
aI9
as(I1
I3
I2
tp273
(lp274
I3
as(I4
I3
I5
tp275
(lp276
I7
aI9
as(I6
I9
I6
tp277
(lp278
I1
aI9
aI10
as(I1
I8
I9
tp279
(lp280
I5
aI6
as(I10
I7
I9
tp281
(lp282
I5
as(I8
I2
I4
tp283
(lp284
I2
aI5
as(I3
I4
I2
tp285
(lp286
I4
aI8
as(I2
I10
I3
tp287
(lp288
I7
aI10
as(I8
I2
I6
tp289
(lp290
I10
as(I6
I9
I7
tp291
(lp292
I5
as(I6
I9
I4
tp293
(lp294
I5
as(I6
I9
I10
tp295
(lp296
I3
aI7
as(I2
I10
I1
tp297
(lp298
I6
as(I8
I2
I8
tp299
(lp300
I1
aI2
aI4
as(I7
I10
I6
tp301
(lp302
I10
as(I6
I9
I8
tp303
(lp304
I1
aI2
aI4
as(I9
I5
I4
tp305
(lp306
I5
as(I1
I3
I10
tp307
(lp308
I3
aI7
as(I2
I10
I7
tp309
(lp310
I3
aI10
as(I8
I2
I10
tp311
(lp312
I3
as(I7
I10
I4
tp313
(lp314
I2
aI8
as(I3
I4
I8
tp315
(lp316
I4
as(I9
I5
I6
tp317
(lp318
I1
aI10
as(I5
I9
I5
tp319
(lp320
I4
aI7
aI9
as(I1
I3
I8
tp321
(lp322
I2
aI4
as(I2
I10
I5
tp323
(lp324
I7
aI9
as(I7
I10
I2
tp325
(lp326
I3
aI8
as(I6
I5
I3
tp327
(lp328
I2
aI7
as(I4
I3
I1
tp329
(lp330
I6
as(I3
I4
I10
tp331
(lp332
I6
aI7
as(I5
I9
I7
tp333
(lp334
I3
aI10
as(I4
I3
I9
tp335
(lp336
I1
aI6
as(I9
I5
I2
tp337
(lp338
I4
as(I5
I9
I1
tp339
(lp340
I6
aI9
as(I8
I1
I3
tp341
(lp342
I10
as(I2
I10
I9
tp343
(lp344
I6
as(I2
I8
I4
tp345
(lp346
I5
aI8
as(I4
I7
I2
tp347
(lp348
I3
as(I5
I9
I3
tp349
(lp350
I10
as(I8
I1
I5
tp351
(lp352
I7
aI9
as(I2
I8
I6
tp353
(lp354
I1
as(I7
I4
I9
tp355
(lp356
I1
aI5
as(I5
I6
I2
tp357
(lp358
I3
aI8
as(I5
I6
I8
tp359
(lp360
I1
as.