(dp0
(I8
I6
I7
tp1
(lp2
I6
aI10
as(I3
I1
I10
tp3
(lp4
I2
aI6
aI7
as(I5
I2
I7
tp5
(lp6
I10
as(I7
I1
I3
tp7
(lp8
I1
as(I8
I9
I1
tp9
(lp10
I2
aI3
aI4
as(I9
I8
I3
tp11
(lp12
I1
aI5
as(I3
I1
I8
tp13
(lp14
I4
aI7
as(I5
I2
I1
tp15
(lp16
I2
aI3
as(I2
I5
I9
tp17
(lp18
I5
as(I8
I9
I2
tp19
(lp20
I1
aI10
as(I9
I8
I1
tp21
(lp22
I2
aI3
aI4
as(I1
I7
I2
tp23
(lp24
I3
aI10
as(I5
I2
I3
tp25
(lp26
I1
aI2
as(I7
I1
I7
tp27
(lp28
I6
aI8
aI10
as(I10
I3
I4
tp29
(lp30
I1
as(I9
I8
I7
tp31
(lp32
I8
as(I3
I1
I4
tp33
(lp34
I1
as(I7
I1
I5
tp35
(lp36
I3
as(I6
I8
I10
tp37
(lp38
I2
aI7
as(I7
I5
I9
tp39
(lp40
I4
aI5
as(I9
I8
I5
tp41
(lp42
I3
aI8
as(I3
I1
I2
tp43
(lp44
I1
aI10
as(I2
I5
I3
tp45
(lp46
I1
aI5
as(I3
I10
I9
tp47
(lp48
I6
as(I1
I7
I4
tp49
(lp50
I8
aI9
as(I5
I2
I9
tp51
(lp52
I4
aI6
as(I4
I9
I8
tp53
(lp54
I5
aI7
as(I2
I5
I1
tp55
(lp56
I3
aI4
as(I9
I4
I6
tp57
(lp58
I7
aI10
as(I10
I2
I6
tp59
(lp60
I7
aI9
as(I7
I5
I6
tp61
(lp62
I9
aI10
as(I8
I6
I10
tp63
(lp64
I6
aI7
as(I4
I9
I10
tp65
(lp66
I6
as(I2
I5
I7
tp67
(lp68
I8
as(I4
I6
I3
tp69
(lp70
I2
as(I1
I3
I7
tp71
(lp72
I8
aI10
as(I10
I2
I4
tp73
(lp74
I1
as(I7
I5
I4
tp75
(lp76
I1
aI8
aI9
as(I4
I9
I4
tp77
(lp78
I1
aI8
aI9
as(I4
I6
I2
tp79
(lp80
I10
as(I9
I4
I2
tp81
(lp82
I1
as(I5
I7
I2
tp83
(lp84
I10
as(I1
I3
I5
tp85
(lp86
I3
as(I10
I2
I10
tp87
(lp88
I2
aI6
aI7
as(I6
I4
I8
tp89
(lp90
I4
aI5
as(I4
I9
I6
tp91
(lp92
I9
as(I4
I6
I7
tp93
(lp94
I6
aI10
as(I10
I2
I8
tp95
(lp96
I4
aI5
as(I6
I4
I10
tp97
(lp98
I2
aI7
as(I4
I6
I9
tp99
(lp100
I5
aI6
as(I1
I3
I1
tp101
(lp102
I2
aI3
aI4
as(I3
I10
I7
tp103
(lp104
I6
aI10
as(I6
I8
I9
tp105
(lp106
I4
aI5
as(I4
I9
I2
tp107
(lp108
I3
aI10
as(I4
I6
I5
tp109
(lp110
I8
aI9
as(I10
I3
I10
tp111
(lp112
I2
aI6
aI7
as(I5
I7
I1
tp113
(lp114
I2
as(I3
I10
I5
tp115
(lp116
I8
aI9
as(I3
I1
I7
tp117
(lp118
I8
aI10
as(I6
I4
I6
tp119
(lp120
I7
aI9
aI10
as(I8
I6
I2
tp121
(lp122
I10
as(I9
I4
I10
tp123
(lp124
I2
aI7
as(I3
I10
I3
tp125
(lp126
I1
aI2
aI5
as(I5
I7
I5
tp127
(lp128
I3
aI8
aI9
as(I2
I10
I2
tp129
(lp130
I1
aI3
aI10
as(I7
I5
I10
tp131
(lp132
I2
aI6
as(I9
I4
I8
tp133
(lp134
I4
as(I5
I7
I3
tp135
(lp136
I1
aI2
as(I6
I4
I2
tp137
(lp138
I1
as(I4
I6
I4
tp139
(lp140
I1
aI8
aI9
as(I1
I3
I9
tp141
(lp142
I5
aI6
as(I2
I10
I6
tp143
(lp144
I7
aI10
as(I3
I1
I6
tp145
(lp146
I9
aI10
as(I9
I8
I10
tp147
(lp148
I2
aI7
as(I2
I10
I4
tp149
(lp150
I8
aI9
as(I7
I5
I3
tp151
(lp152
I5
as(I7
I1
I10
tp153
(lp154
I2
aI6
as(I10
I3
I7
tp155
(lp156
I6
aI8
as(I10
I3
I6
tp157
(lp158
I7
aI9
as(I8
I9
I4
tp159
(lp160
I1
aI9
as(I7
I1
I8
tp161
(lp162
I4
aI5
as(I8
I9
I8
tp163
(lp164
I4
aI5
aI7
as(I2
I10
I8
tp165
(lp166
I7
as(I1
I7
I9
tp167
(lp168
I6
as(I1
I7
I1
tp169
(lp170
I2
aI3
aI4
as(I5
I2
I4
tp171
(lp172
I1
as(I6
I8
I4
tp173
(lp174
I1
aI8
as(I3
I10
I1
tp175
(lp176
I2
aI4
as(I10
I3
I2
tp177
(lp178
I1
aI3
as(I5
I2
I6
tp179
(lp180
I10
as(I2
I5
I10
tp181
(lp182
I6
aI7
as(I6
I8
I6
tp183
(lp184
I7
aI9
aI10
as(I9
I8
I2
tp185
(lp186
I1
aI10
as(I3
I1
I9
tp187
(lp188
I4
aI6
as(I8
I6
I1
tp189
(lp190
I2
aI3
as(I8
I9
I5
tp191
(lp192
I3
aI9
as(I2
I5
I8
tp193
(lp194
I5
as(I7
I1
I2
tp195
(lp196
I1
aI3
as(I10
I3
I5
tp197
(lp198
I3
as(I1
I7
I3
tp199
(lp200
I2
aI5
as(I8
I6
I3
tp201
(lp202
I2
as(I5
I7
I10
tp203
(lp204
I6
aI7
as(I3
I10
I6
tp205
(lp206
I7
aI10
as(I9
I8
I6
tp207
(lp208
I7
aI10
as(I3
I1
I5
tp209
(lp210
I8
aI9
as(I10
I3
I8
tp211
(lp212
I4
aI5
as(I7
I1
I6
tp213
(lp214
I9
aI10
as(I10
I2
I3
tp215
(lp216
I2
as(I9
I8
I4
tp217
(lp218
I1
aI8
as(I3
I1
I3
tp219
(lp220
I1
aI2
aI5
as(I8
I9
I6
tp221
(lp222
I9
as(I2
I5
I2
tp223
(lp224
I1
aI3
aI10
as(I7
I1
I4
tp225
(lp226
I1
as(I10
I2
I1
tp227
(lp228
I2
aI3
as(I6
I8
I3
tp229
(lp230
I5
as(I1
I7
I5
tp231
(lp232
I8
as(I5
I2
I8
tp233
(lp234
I4
aI7
as(I5
I7
I9
tp235
(lp236
I4
aI6
as(I10
I2
I7
tp237
(lp238
I6
aI8
as(I7
I5
I7
tp239
(lp240
I6
aI8
aI10
as(I5
I2
I10
tp241
(lp242
I2
as(I2
I5
I6
tp243
(lp244
I7
aI9
as(I9
I4
I7
tp245
(lp246
I8
aI10
as(I10
I2
I5
tp247
(lp248
I3
as(I8
I9
I3
tp249
(lp250
I1
aI5
as(I8
I9
I7
tp251
(lp252
I6
aI10
as(I2
I5
I4
tp253
(lp254
I8
aI9
as(I9
I4
I5
tp255
(lp256
I3
aI8
as(I1
I3
I6
tp257
(lp258
I9
aI10
as(I3
I10
I2
tp259
(lp260
I10
as(I6
I8
I2
tp261
(lp262
I1
aI3
as(I6
I4
I9
tp263
(lp264
I4
aI5
as(I1
I7
I6
tp265
(lp266
I7
as(I4
I9
I5
tp267
(lp268
I9
as(I9
I4
I3
tp269
(lp270
I1
aI2
as(I1
I3
I4
tp271
(lp272
I8
aI9
as(I10
I2
I9
tp273
(lp274
I4
aI5
as(I7
I5
I1
tp275
(lp276
I3
as(I4
I9
I7
tp277
(lp278
I6
aI10
as(I3
I10
I8
tp279
(lp280
I7
as(I9
I4
I1
tp281
(lp282
I4
as(I1
I3
I2
tp283
(lp284
I3
aI10
as(I7
I5
I8
tp285
(lp286
I4
aI5
as(I6
I4
I5
tp287
(lp288
I3
aI8
aI9
as(I4
I9
I1
tp289
(lp290
I2
aI3
as(I4
I6
I8
tp291
(lp292
I5
aI7
as(I5
I7
I8
tp293
(lp294
I4
aI7
as(I3
I10
I4
tp295
(lp296
I8
aI9
as(I6
I4
I7
tp297
(lp298
I8
aI10
as(I4
I9
I3
tp299
(lp300
I2
aI5
as(I4
I6
I10
tp301
(lp302
I6
aI7
as(I5
I7
I6
tp303
(lp304
I7
aI10
as(I2
I10
I3
tp305
(lp306
I1
aI5
as(I8
I6
I9
tp307
(lp308
I6
as(I6
I4
I1
tp309
(lp310
I4
as(I8
I6
I5
tp311
(lp312
I3
aI9
as(I5
I7
I4
tp313
(lp314
I8
aI9
as(I2
I10
I1
tp315
(lp316
I3
aI4
as(I6
I4
I3
tp317
(lp318
I1
as(I9
I4
I9
tp319
(lp320
I4
aI5
aI6
as(I1
I3
I10
tp321
(lp322
I2
aI6
aI7
as(I2
I10
I7
tp323
(lp324
I10
as(I1
I3
I8
tp325
(lp326
I5
aI7
as(I2
I10
I5
tp327
(lp328
I8
aI9
as(I8
I6
I8
tp329
(lp330
I4
aI5
aI7
as(I6
I8
I1
tp331
(lp332
I3
aI4
as(I8
I9
I10
tp333
(lp334
I2
aI6
as(I8
I6
I4
tp335
(lp336
I1
aI9
as(I7
I5
I2
tp337
(lp338
I3
as(I7
I1
I9
tp339
(lp340
I4
aI5
as(I9
I8
I9
tp341
(lp342
I4
aI5
aI6
as(I2
I10
I9
tp343
(lp344
I6
as(I1
I7
I10
tp345
(lp346
I6
aI7
as(I4
I6
I1
tp347
(lp348
I2
aI3
as(I6
I8
I5
tp349
(lp350
I8
as(I10
I3
I1
tp351
(lp352
I3
as(I1
I7
I8
tp353
(lp354
I7
as(I5
I2
I5
tp355
(lp356
I3
aI8
aI9
as(I6
I8
I7
tp357
(lp358
I8
aI10
as(I10
I3
I9
tp359
(lp360
I4
aI5
as.