(dp0
(I1
I2
I8
tp1
(lp2
I2
aI4
as(I3
I1
I10
tp3
(lp4
I1
aI6
as(I9
I5
I8
tp5
(lp6
I7
as(I1
I2
I10
tp7
(lp8
I6
aI7
as(I3
I1
I8
tp9
(lp10
I2
as(I7
I10
I8
tp11
(lp12
I2
aI4
as(I3
I6
I9
tp13
(lp14
I4
aI5
as(I3
I1
I6
tp15
(lp16
I1
as(I9
I5
I9
tp17
(lp18
I3
aI4
aI5
as(I4
I2
I8
tp19
(lp20
I2
aI7
as(I3
I1
I4
tp21
(lp22
I2
aI8
as(I6
I3
I9
tp23
(lp24
I3
as(I4
I2
I10
tp25
(lp26
I1
aI6
as(I3
I1
I2
tp27
(lp28
I6
as(I10
I7
I2
tp29
(lp30
I4
aI8
as(I10
I8
I7
tp31
(lp32
I3
aI8
as(I4
I6
I1
tp33
(lp34
I6
aI10
as(I1
I2
I4
tp35
(lp36
I2
aI8
as(I3
I6
I7
tp37
(lp38
I8
aI10
as(I4
I6
I3
tp39
(lp40
I5
as(I1
I3
I7
tp41
(lp42
I3
aI8
as(I1
I2
I6
tp43
(lp44
I2
aI10
as(I2
I4
I8
tp45
(lp46
I4
aI7
as(I10
I7
I3
tp47
(lp48
I7
as(I4
I6
I5
tp49
(lp50
I1
as(I1
I3
I5
tp51
(lp52
I3
aI9
as(I6
I3
I1
tp53
(lp54
I5
aI10
as(I7
I8
I4
tp55
(lp56
I2
aI8
as(I6
I4
I8
tp57
(lp58
I4
as(I2
I4
I10
tp59
(lp60
I7
as(I8
I10
I8
tp61
(lp62
I2
aI4
aI7
as(I8
I10
I2
tp63
(lp64
I6
as(I4
I6
I7
tp65
(lp66
I10
as(I7
I8
I6
tp67
(lp68
I2
as(I3
I6
I4
tp69
(lp70
I2
as(I6
I4
I10
tp71
(lp72
I1
aI7
as(I4
I6
I9
tp73
(lp74
I3
aI5
as(I1
I3
I1
tp75
(lp76
I5
aI6
aI10
as(I6
I3
I5
tp77
(lp78
I3
aI9
as(I8
I7
I6
tp79
(lp80
I1
aI10
as(I10
I7
I4
tp81
(lp82
I8
as(I10
I7
I10
tp83
(lp84
I1
aI6
aI7
as(I6
I3
I7
tp85
(lp86
I3
as(I7
I8
I2
tp87
(lp88
I4
aI8
as(I6
I4
I6
tp89
(lp90
I1
aI2
aI10
as(I10
I7
I9
tp91
(lp92
I3
as(I9
I5
I10
tp93
(lp94
I1
aI6
as(I10
I8
I1
tp95
(lp96
I5
aI6
as(I3
I6
I5
tp97
(lp98
I1
aI9
as(I8
I7
I2
tp99
(lp100
I4
aI6
as(I2
I4
I2
tp101
(lp102
I4
aI6
aI8
as(I10
I8
I4
tp103
(lp104
I8
as(I2
I1
I9
tp105
(lp106
I3
aI5
as(I5
I9
I8
tp107
(lp108
I2
aI4
as(I7
I10
I7
tp109
(lp110
I3
aI8
aI10
as(I6
I4
I2
tp111
(lp112
I4
aI8
as(I10
I7
I5
tp113
(lp114
I3
aI9
as(I9
I5
I7
tp115
(lp116
I3
aI10
as(I2
I1
I7
tp117
(lp118
I3
aI10
as(I5
I9
I10
tp119
(lp120
I6
aI7
as(I1
I3
I9
tp121
(lp122
I3
as(I7
I10
I5
tp123
(lp124
I1
as(I2
I4
I6
tp125
(lp126
I1
aI10
as(I8
I10
I4
tp127
(lp128
I2
aI9
as(I9
I5
I1
tp129
(lp130
I5
as(I2
I1
I5
tp131
(lp132
I1
as(I5
I9
I4
tp133
(lp134
I9
as(I4
I2
I5
tp135
(lp136
I1
as(I7
I8
I10
tp137
(lp138
I1
aI6
as(I3
I6
I2
tp139
(lp140
I6
as(I8
I10
I6
tp141
(lp142
I1
aI10
as(I9
I5
I3
tp143
(lp144
I5
aI7
as(I2
I1
I3
tp145
(lp146
I5
as(I5
I9
I6
tp147
(lp148
I2
as(I4
I2
I7
tp149
(lp150
I8
aI10
as(I7
I10
I1
tp151
(lp152
I6
aI10
as(I8
I7
I10
tp153
(lp154
I7
as(I10
I7
I6
tp155
(lp156
I1
aI2
as(I4
I2
I1
tp157
(lp158
I6
as(I8
I7
I8
tp159
(lp160
I2
aI4
aI7
as(I10
I8
I3
tp161
(lp162
I7
aI9
as(I5
I9
I2
tp163
(lp164
I4
as(I4
I2
I3
tp165
(lp166
I5
aI7
as(I7
I10
I3
tp167
(lp168
I5
aI9
as(I3
I6
I10
tp169
(lp170
I1
aI6
as(I1
I2
I9
tp171
(lp172
I4
as(I3
I1
I9
tp173
(lp174
I4
aI5
as(I3
I6
I8
tp175
(lp176
I2
as(I3
I1
I7
tp177
(lp178
I8
aI10
as(I7
I10
I9
tp179
(lp180
I4
aI5
as(I10
I8
I2
tp181
(lp182
I4
aI8
as(I4
I2
I9
tp183
(lp184
I3
aI5
as(I3
I1
I5
tp185
(lp186
I1
aI9
as(I6
I3
I8
tp187
(lp188
I7
as(I3
I1
I3
tp189
(lp190
I5
aI7
aI9
as(I10
I7
I8
tp191
(lp192
I7
as(I6
I3
I10
tp193
(lp194
I1
aI7
as(I1
I2
I1
tp195
(lp196
I5
aI6
aI10
as(I1
I2
I3
tp197
(lp198
I9
as(I3
I6
I1
tp199
(lp200
I6
aI10
as(I10
I7
I1
tp201
(lp202
I5
aI6
as(I1
I2
I5
tp203
(lp204
I3
aI9
as(I2
I4
I9
tp205
(lp206
I4
as(I4
I6
I2
tp207
(lp208
I6
aI8
as(I1
I3
I6
tp209
(lp210
I2
aI10
as(I1
I2
I7
tp211
(lp212
I8
as(I10
I8
I6
tp213
(lp214
I2
as(I6
I4
I9
tp215
(lp216
I4
as(I8
I10
I9
tp217
(lp218
I3
aI5
as(I4
I6
I4
tp219
(lp220
I2
aI8
aI9
as(I1
I3
I4
tp221
(lp222
I9
as(I6
I3
I2
tp223
(lp224
I4
aI8
as(I7
I8
I5
tp225
(lp226
I9
as(I1
I3
I2
tp227
(lp228
I4
aI8
as(I6
I3
I4
tp229
(lp230
I8
aI9
as(I7
I8
I7
tp231
(lp232
I3
aI8
aI10
as(I6
I4
I5
tp233
(lp234
I3
aI9
as(I10
I8
I9
tp235
(lp236
I4
as(I4
I6
I8
tp237
(lp238
I2
aI7
as(I6
I3
I6
tp239
(lp240
I1
aI2
aI10
as(I7
I8
I1
tp241
(lp242
I5
aI6
as(I6
I4
I7
tp243
(lp244
I3
aI8
as(I2
I4
I1
tp245
(lp246
I5
aI10
as(I2
I1
I10
tp247
(lp248
I1
as(I4
I6
I10
tp249
(lp250
I1
aI6
as(I7
I8
I3
tp251
(lp252
I5
aI9
as(I6
I4
I1
tp253
(lp254
I5
aI10
as(I8
I7
I5
tp255
(lp256
I3
as(I2
I4
I3
tp257
(lp258
I5
aI9
as(I8
I10
I1
tp259
(lp260
I10
as(I2
I1
I8
tp261
(lp262
I4
aI7
as(I7
I10
I6
tp263
(lp264
I1
aI10
as(I6
I4
I3
tp265
(lp266
I9
as(I8
I7
I3
tp267
(lp268
I7
as(I2
I4
I5
tp269
(lp270
I3
aI9
as(I8
I10
I3
tp271
(lp272
I5
aI7
as(I9
I5
I4
tp273
(lp274
I2
aI8
as(I2
I1
I6
tp275
(lp276
I1
aI10
as(I1
I3
I10
tp277
(lp278
I6
aI7
as(I7
I10
I4
tp279
(lp280
I2
as(I8
I7
I4
tp281
(lp282
I2
aI9
as(I8
I7
I1
tp283
(lp284
I10
as(I2
I4
I7
tp285
(lp286
I3
aI8
as(I8
I10
I5
tp287
(lp288
I1
as(I9
I5
I6
tp289
(lp290
I1
aI10
as(I2
I1
I4
tp291
(lp292
I8
aI9
as(I5
I9
I5
tp293
(lp294
I1
aI3
aI9
as(I1
I3
I8
tp295
(lp296
I4
aI7
as(I7
I8
I9
tp297
(lp298
I4
as(I7
I10
I2
tp299
(lp300
I6
as(I10
I8
I10
tp301
(lp302
I1
aI6
aI7
as(I8
I10
I7
tp303
(lp304
I3
aI10
as(I3
I6
I3
tp305
(lp306
I5
aI7
aI9
as(I2
I1
I2
tp307
(lp308
I4
aI6
aI8
as(I5
I9
I7
tp309
(lp310
I3
aI8
as(I4
I2
I4
tp311
(lp312
I2
aI8
aI9
as(I9
I5
I2
tp313
(lp314
I6
aI8
as(I5
I9
I1
tp315
(lp316
I6
aI10
as(I4
I2
I6
tp317
(lp318
I2
as(I5
I9
I3
tp319
(lp320
I7
aI9
as(I8
I7
I9
tp321
(lp322
I3
aI5
as(I10
I8
I5
tp323
(lp324
I3
aI9
as.